; ModuleID = 'source-C-CXX/61/285.c'
source_filename = "source-C-CXX/61/285.c"
target datalayout = "e-m:e-p270:32:32-p271:32:32-p272:64:64-i64:64-f80:128-n8:16:32:64-S128"
target triple = "x86_64-pc-linux-gnu"

; Function Attrs: nounwind sspstrong uwtable
define dso_local i32 @main() local_unnamed_addr #0 {
  %1 = alloca [210 x i8], align 16
  %2 = getelementptr inbounds [210 x i8], [210 x i8]* %1, i64 0, i64 0
  call void @llvm.lifetime.start.p0i8(i64 210, i8* nonnull %2) #5
  %3 = call i32 (i8*, ...) bitcast (i32 (...)* @gets to i32 (i8*, ...)*)(i8* nonnull %2) #5
  %4 = call i64 @strlen(i8* noundef nonnull %2) #6
  %5 = trunc i64 %4 to i32
  %6 = icmp sgt i32 %5, 0
  br i1 %6, label %7, label %27

7:                                                ; preds = %0
  %8 = and i64 %4, 4294967295
  br label %9

9:                                                ; preds = %7, %23
  %10 = phi i64 [ 0, %7 ], [ %25, %23 ]
  %11 = phi i32 [ 0, %7 ], [ %24, %23 ]
  %12 = getelementptr inbounds [210 x i8], [210 x i8]* %1, i64 0, i64 %10
  %13 = load i8, i8* %12, align 1, !tbaa !5
  %14 = icmp eq i8 %13, 32
  br i1 %14, label %15, label %17

15:                                               ; preds = %9
  %16 = icmp eq i32 %11, 0
  br i1 %16, label %19, label %23

17:                                               ; preds = %9
  %18 = sext i8 %13 to i32
  br label %19

19:                                               ; preds = %15, %17
  %20 = phi i32 [ %18, %17 ], [ 32, %15 ]
  %21 = phi i32 [ 0, %17 ], [ 1, %15 ]
  %22 = call i32 @putchar(i32 %20)
  br label %23

23:                                               ; preds = %19, %15
  %24 = phi i32 [ 1, %15 ], [ %21, %19 ]
  %25 = add nuw nsw i64 %10, 1
  %26 = icmp eq i64 %25, %8
  br i1 %26, label %27, label %9, !llvm.loop !8

27:                                               ; preds = %23, %0
  call void @llvm.lifetime.end.p0i8(i64 210, i8* nonnull %2) #5
  ret i32 0
}

; Function Attrs: argmemonly mustprogress nofree nosync nounwind willreturn
declare void @llvm.lifetime.start.p0i8(i64 immarg, i8* nocapture) #1

declare i32 @gets(...) local_unnamed_addr #2

; Function Attrs: argmemonly mustprogress nofree nounwind readonly willreturn
declare i64 @strlen(i8* nocapture) local_unnamed_addr #3

; Function Attrs: argmemonly mustprogress nofree nosync nounwind willreturn
declare void @llvm.lifetime.end.p0i8(i64 immarg, i8* nocapture) #1

; Function Attrs: nofree nounwind
declare noundef i32 @putchar(i32 noundef) local_unnamed_addr #4


!llvm.module.flags = !{!0, !1, !2, !3}
!llvm.ident = !{!4}

!0 = !{i32 1, !"wchar_size", i32 4}
!1 = !{i32 7, !"PIC Level", i32 2}
!2 = !{i32 7, !"PIE Level", i32 2}
!3 = !{i32 7, !"uwtable", i32 1}
!4 = !{!"clang version 13.0.0"}
!5 = !{!6, !6, i64 0}
!6 = !{!"omnipotent char", !7, i64 0}
!7 = !{!"Simple C/C++ TBAA"}
!8 = distinct !{!8, !9}
!9 = !{!"llvm.loop.mustprogress"}
